target datalayout = "e-m:e-p270:32:32-p271:32:32-p272:64:64-i64:64-i128:128-f80:128-n8:16:32:64-S128"
target triple = "x86_64-pc-linux-gnu"

%"class.icu_77::double_conversion::Bignum" = type { i16, i16, [128 x i32] }
%"class.icu_77::double_conversion::Vector" = type <{ ptr, i32, [4 x i8] }>

; Function Attrs: mustprogress nounwind uwtable
define void @_ZN6icu_7717double_conversion6Bignum5ClampEv(ptr noundef nonnull align 4 dereferenceable(516) %0) #0 align 2 {
  %2 = alloca ptr, align 8
  store ptr %0, ptr %2, align 8, !tbaa !3
  %3 = load ptr, ptr %2, align 8
  br label %4

4:                                                ; preds = %19, %1
  %5 = getelementptr inbounds nuw %"class.icu_77::double_conversion::Bignum", ptr %3, i32 0, i32 0
  %6 = load i16, ptr %5, align 4, !tbaa !12
  %7 = sext i16 %6 to i32
  %8 = icmp sgt i32 %7, 0
  br i1 %8, label %9, label %17

9:                                                ; preds = %4
  %10 = getelementptr inbounds nuw %"class.icu_77::double_conversion::Bignum", ptr %3, i32 0, i32 0
  %11 = load i16, ptr %10, align 4, !tbaa !12
  %12 = sext i16 %11 to i32
  %13 = sub nsw i32 %12, 1
  %14 = call noundef nonnull align 4 dereferenceable(4) ptr @_ZN6icu_7717double_conversion6Bignum8RawBigitEi(ptr noundef nonnull align 4 dereferenceable(516) %3, i32 noundef %13)
  %15 = load i32, ptr %14, align 4, !tbaa !8
  %16 = icmp eq i32 %15, 0
  br label %17

17:                                               ; preds = %9, %4
  %18 = phi i1 [ false, %4 ], [ %16, %9 ]
  br i1 %18, label %19, label %23

19:                                               ; preds = %17
  %20 = getelementptr inbounds nuw %"class.icu_77::double_conversion::Bignum", ptr %3, i32 0, i32 0
  %21 = load i16, ptr %20, align 4, !tbaa !12
  %22 = add i16 %21, -1
  store i16 %22, ptr %20, align 4, !tbaa !12
  br label %4, !llvm.loop !32

23:                                               ; preds = %17
  %24 = getelementptr inbounds nuw %"class.icu_77::double_conversion::Bignum", ptr %3, i32 0, i32 0
  %25 = load i16, ptr %24, align 4, !tbaa !12
  %26 = sext i16 %25 to i32
  %27 = icmp eq i32 %26, 0
  br i1 %27, label %28, label %30

28:                                               ; preds = %23
  %29 = getelementptr inbounds nuw %"class.icu_77::double_conversion::Bignum", ptr %3, i32 0, i32 1
  store i16 0, ptr %29, align 2, !tbaa !14
  br label %30

30:                                               ; preds = %28, %23
  ret void
}

; Function Attrs: mustprogress nounwind uwtable
define linkonce_odr void @_ZN6icu_7717double_conversion6VectorIKcE8pop_backEv(ptr noundef nonnull align 8 dereferenceable(12) %0) #0 comdat align 2 {
  %2 = alloca ptr, align 8
  store ptr %0, ptr %2, align 8, !tbaa !24
  %3 = load ptr, ptr %2, align 8
  %4 = getelementptr inbounds nuw %"class.icu_77::double_conversion::Vector", ptr %3, i32 0, i32 1
  %5 = load i32, ptr %4, align 8, !tbaa !26
  %6 = add nsw i32 %5, -1
  store i32 %6, ptr %4, align 8, !tbaa !26
  ret void
}

; Function Attrs: mustprogress nounwind uwtable
define noundef nonnull align 4 dereferenceable(4) ptr @_ZN6icu_7717double_conversion6Bignum8RawBigitEi(ptr noundef nonnull align 4 dereferenceable(516) %0, i32 noundef %1) #0 align 2 {
  %3 = alloca ptr, align 8
  %4 = alloca i32, align 4
  store ptr %0, ptr %3, align 8, !tbaa !3
  store i32 %1, ptr %4, align 4, !tbaa !8
  %5 = load ptr, ptr %3, align 8
  %6 = getelementptr inbounds nuw %"class.icu_77::double_conversion::Bignum", ptr %5, i32 0, i32 2
  %7 = load i32, ptr %4, align 4, !tbaa !8
  %8 = sext i32 %7 to i64
  %9 = getelementptr inbounds [128 x i32], ptr %6, i64 0, i64 %8
  ret ptr %9
}

; Function Attrs: mustprogress nounwind uwtable
define internal noundef i64 @_ZN6icu_7717double_conversionL12HexCharValueEi(i32 noundef %0) #0 {
  %2 = alloca i64, align 8
  %3 = alloca i32, align 4
  store i32 %0, ptr %3, align 4, !tbaa !8
  %4 = load i32, ptr %3, align 4, !tbaa !8
  %5 = icmp sle i32 48, %4
  br i1 %5, label %6, label %13

6:                                                ; preds = %1
  %7 = load i32, ptr %3, align 4, !tbaa !8
  %8 = icmp sle i32 %7, 57
  br i1 %8, label %9, label %13

9:                                                ; preds = %6
  %10 = load i32, ptr %3, align 4, !tbaa !8
  %11 = sub nsw i32 %10, 48
  %12 = sext i32 %11 to i64
  store i64 %12, ptr %2, align 8
  br label %29

13:                                               ; preds = %6, %1
  %14 = load i32, ptr %3, align 4, !tbaa !8
  %15 = icmp sle i32 97, %14
  br i1 %15, label %16, label %24

16:                                               ; preds = %13
  %17 = load i32, ptr %3, align 4, !tbaa !8
  %18 = icmp sle i32 %17, 102
  br i1 %18, label %19, label %24

19:                                               ; preds = %16
  %20 = load i32, ptr %3, align 4, !tbaa !8
  %21 = add nsw i32 10, %20
  %22 = sub nsw i32 %21, 97
  %23 = sext i32 %22 to i64
  store i64 %23, ptr %2, align 8
  br label %29

24:                                               ; preds = %16, %13
  %25 = load i32, ptr %3, align 4, !tbaa !8
  %26 = add nsw i32 10, %25
  %27 = sub nsw i32 %26, 65
  %28 = sext i32 %27 to i64
  store i64 %28, ptr %2, align 8
  br label %29

29:                                               ; preds = %24, %19, %9
  %30 = load i64, ptr %2, align 8
  ret i64 %30
}

; Function Attrs: mustprogress nounwind uwtable
define linkonce_odr noundef nonnull align 1 dereferenceable(1) ptr @_ZN6icu_7717double_conversion6VectorIKcE4lastEv(ptr noundef nonnull align 8 dereferenceable(12) %0) #0 comdat align 2 {
  %2 = alloca ptr, align 8
  store ptr %0, ptr %2, align 8, !tbaa !24
  %3 = load ptr, ptr %2, align 8
  %4 = getelementptr inbounds nuw %"class.icu_77::double_conversion::Vector", ptr %3, i32 0, i32 0
  %5 = load ptr, ptr %4, align 8, !tbaa !34
  %6 = getelementptr inbounds nuw %"class.icu_77::double_conversion::Vector", ptr %3, i32 0, i32 1
  %7 = load i32, ptr %6, align 8, !tbaa !26
  %8 = sub nsw i32 %7, 1
  %9 = sext i32 %8 to i64
  %10 = getelementptr inbounds i8, ptr %5, i64 %9
  ret ptr %10
}

; Function Attrs: mustprogress nounwind uwtable
define linkonce_odr noundef zeroext i1 @_ZNK6icu_7717double_conversion6VectorIKcE8is_emptyEv(ptr noundef nonnull align 8 dereferenceable(12) %0) #0 comdat align 2 {
  %2 = alloca ptr, align 8
  store ptr %0, ptr %2, align 8, !tbaa !24
  %3 = load ptr, ptr %2, align 8
  %4 = getelementptr inbounds nuw %"class.icu_77::double_conversion::Vector", ptr %3, i32 0, i32 1
  %5 = load i32, ptr %4, align 8, !tbaa !26
  %6 = icmp eq i32 %5, 0
  ret i1 %6
}

; Function Attrs: mustprogress nounwind uwtable
define linkonce_odr void @_ZN6icu_7717double_conversion6Bignum14EnsureCapacityEi(i32 noundef %0) #0 comdat align 2 {
  %2 = alloca i32, align 4
  store i32 %0, ptr %2, align 4, !tbaa !8
  %3 = load i32, ptr %2, align 4, !tbaa !8
  %4 = icmp sgt i32 %3, 128
  br i1 %4, label %5, label %6

5:                                                ; preds = %1
  call void @abort() #7
  unreachable

6:                                                ; preds = %1
  ret void
}

; Function Attrs: mustprogress nounwind uwtable
define linkonce_odr noundef i32 @_ZNK6icu_7717double_conversion6VectorIKcE6lengthEv(ptr noundef nonnull align 8 dereferenceable(12) %0) #0 comdat align 2 {
  %2 = alloca ptr, align 8
  store ptr %0, ptr %2, align 8, !tbaa !24
  %3 = load ptr, ptr %2, align 8
  %4 = getelementptr inbounds nuw %"class.icu_77::double_conversion::Vector", ptr %3, i32 0, i32 1
  %5 = load i32, ptr %4, align 8, !tbaa !26
  ret i32 %5
}

; Function Attrs: mustprogress nounwind uwtable
define linkonce_odr void @_ZN6icu_7717double_conversion6Bignum4ZeroEv(ptr noundef nonnull align 4 dereferenceable(516) %0) #0 comdat align 2 {
  %2 = alloca ptr, align 8
  store ptr %0, ptr %2, align 8, !tbaa !3
  %3 = load ptr, ptr %2, align 8
  %4 = getelementptr inbounds nuw %"class.icu_77::double_conversion::Bignum", ptr %3, i32 0, i32 0
  store i16 0, ptr %4, align 4, !tbaa !12
  %5 = getelementptr inbounds nuw %"class.icu_77::double_conversion::Bignum", ptr %3, i32 0, i32 1
  store i16 0, ptr %5, align 2, !tbaa !14
  ret void
}

; Function Attrs: mustprogress uwtable
define void @_ZN6icu_7717double_conversion6Bignum15AssignHexStringENS0_6VectorIKcEE(ptr noundef nonnull align 4 dereferenceable(516) %0, ptr %1, i32 %2) #1 align 2 {
  %4 = alloca %"class.icu_77::double_conversion::Vector", align 8
  %5 = alloca ptr, align 8
  %6 = alloca i64, align 8
  %7 = alloca i32, align 4
  %8 = getelementptr inbounds nuw { ptr, i32 }, ptr %4, i32 0, i32 0
  store ptr %1, ptr %8, align 8
  %9 = getelementptr inbounds nuw { ptr, i32 }, ptr %4, i32 0, i32 1
  store i32 %2, ptr %9, align 8
  store ptr %0, ptr %5, align 8, !tbaa !3
  %10 = load ptr, ptr %5, align 8
  call void @_ZN6icu_7717double_conversion6Bignum4ZeroEv(ptr noundef nonnull align 4 dereferenceable(516) %10)
  %11 = call noundef i32 @_ZNK6icu_7717double_conversion6VectorIKcE6lengthEv(ptr noundef nonnull align 8 dereferenceable(12) %4)
  %12 = mul nsw i32 %11, 4
  %13 = add nsw i32 %12, 28
  %14 = sub nsw i32 %13, 1
  %15 = sdiv i32 %14, 28
  call void @_ZN6icu_7717double_conversion6Bignum14EnsureCapacityEi(i32 noundef %15)
  call void @llvm.lifetime.start.p0(i64 8, ptr %6) #6
  store i64 0, ptr %6, align 8, !tbaa !15
  call void @llvm.lifetime.start.p0(i64 4, ptr %7) #6
  store i32 0, ptr %7, align 4, !tbaa !8
  br label %16

16:                                               ; preds = %47, %3
  %17 = call noundef zeroext i1 @_ZNK6icu_7717double_conversion6VectorIKcE8is_emptyEv(ptr noundef nonnull align 8 dereferenceable(12) %4)
  %18 = xor i1 %17, true
  br i1 %18, label %20, label %19

19:                                               ; preds = %16
  call void @llvm.lifetime.end.p0(i64 4, ptr %7) #6
  br label %48

20:                                               ; preds = %16
  %21 = call noundef nonnull align 1 dereferenceable(1) ptr @_ZN6icu_7717double_conversion6VectorIKcE4lastEv(ptr noundef nonnull align 8 dereferenceable(12) %4)
  %22 = load i8, ptr %21, align 1, !tbaa !28
  %23 = sext i8 %22 to i32
  %24 = call noundef i64 @_ZN6icu_7717double_conversionL12HexCharValueEi(i32 noundef %23)
  %25 = load i32, ptr %7, align 4, !tbaa !8
  %26 = zext i32 %25 to i64
  %27 = shl i64 %24, %26
  %28 = load i64, ptr %6, align 8, !tbaa !15
  %29 = or i64 %28, %27
  store i64 %29, ptr %6, align 8, !tbaa !15
  %30 = load i32, ptr %7, align 4, !tbaa !8
  %31 = add nsw i32 %30, 4
  store i32 %31, ptr %7, align 4, !tbaa !8
  %32 = icmp sge i32 %31, 28
  br i1 %32, label %33, label %46

33:                                               ; preds = %20
  %34 = load i64, ptr %6, align 8, !tbaa !15
  %35 = and i64 %34, 268435455
  %36 = trunc i64 %35 to i32
  %37 = getelementptr inbounds nuw %"class.icu_77::double_conversion::Bignum", ptr %10, i32 0, i32 0
  %38 = load i16, ptr %37, align 4, !tbaa !12
  %39 = add i16 %38, 1
  store i16 %39, ptr %37, align 4, !tbaa !12
  %40 = sext i16 %38 to i32
  %41 = call noundef nonnull align 4 dereferenceable(4) ptr @_ZN6icu_7717double_conversion6Bignum8RawBigitEi(ptr noundef nonnull align 4 dereferenceable(516) %10, i32 noundef %40)
  store i32 %36, ptr %41, align 4, !tbaa !8
  %42 = load i32, ptr %7, align 4, !tbaa !8
  %43 = sub nsw i32 %42, 28
  store i32 %43, ptr %7, align 4, !tbaa !8
  %44 = load i64, ptr %6, align 8, !tbaa !15
  %45 = lshr i64 %44, 28
  store i64 %45, ptr %6, align 8, !tbaa !15
  br label %46

46:                                               ; preds = %33, %20
  br label %47

47:                                               ; preds = %46
  call void @_ZN6icu_7717double_conversion6VectorIKcE8pop_backEv(ptr noundef nonnull align 8 dereferenceable(12) %4)
  br label %16, !llvm.loop !33

48:                                               ; preds = %19
  %49 = load i64, ptr %6, align 8, !tbaa !15
  %50 = icmp ugt i64 %49, 0
  br i1 %50, label %51, label %60

51:                                               ; preds = %48
  %52 = load i64, ptr %6, align 8, !tbaa !15
  %53 = and i64 %52, 268435455
  %54 = trunc i64 %53 to i32
  %55 = getelementptr inbounds nuw %"class.icu_77::double_conversion::Bignum", ptr %10, i32 0, i32 0
  %56 = load i16, ptr %55, align 4, !tbaa !12
  %57 = add i16 %56, 1
  store i16 %57, ptr %55, align 4, !tbaa !12
  %58 = sext i16 %56 to i32
  %59 = call noundef nonnull align 4 dereferenceable(4) ptr @_ZN6icu_7717double_conversion6Bignum8RawBigitEi(ptr noundef nonnull align 4 dereferenceable(516) %10, i32 noundef %58)
  store i32 %54, ptr %59, align 4, !tbaa !8
  br label %60

60:                                               ; preds = %51, %48
  call void @_ZN6icu_7717double_conversion6Bignum5ClampEv(ptr noundef nonnull align 4 dereferenceable(516) %10)
  call void @llvm.lifetime.end.p0(i64 8, ptr %6) #6
  ret void
}