; Function Attrs: mustprogress nofree nounwind uwtable
define void @_ZN6icu_7717double_conversion6Bignum15AssignHexStringENS0_6VectorIKcEE(ptr noundef nonnull align 4 captures(none) dereferenceable(516) initializes((0, 4)) %0, ptr readonly captures(none) %1, i32 %2) local_unnamed_addr #5 align 2 {
  store i16 0, ptr %0, align 4, !tbaa !3
  %4 = getelementptr inbounds nuw i8, ptr %0, i64 2
  store i16 0, ptr %4, align 2, !tbaa !8
  %5 = icmp sgt i32 %2, 896
  br i1 %5, label %9, label %_ZN6icu_7717double_conversion6Bignum14EnsureCapacityEi.exit.preheader

_ZN6icu_7717double_conversion6Bignum14EnsureCapacityEi.exit.preheader: ; preds = %3
  %invariant.gep = getelementptr i8, ptr %1, i64 -1
  %6 = icmp eq i32 %2, 0
  br i1 %6, label %.critedge.thread3.i, label %.lr.ph

.lr.ph:                                           ; preds = %_ZN6icu_7717double_conversion6Bignum14EnsureCapacityEi.exit.preheader
  %7 = getelementptr inbounds nuw i8, ptr %0, i64 4
  %8 = sext i32 %2 to i64
  br label %10

9:                                                ; preds = %3
  tail call void @abort() #12
  unreachable

_ZN6icu_7717double_conversion6Bignum14EnsureCapacityEi.exit._crit_edge: ; preds = %_ZN6icu_7717double_conversion6Bignum14EnsureCapacityEi.exit
  %.not = icmp eq i64 %.19, 0
  br i1 %.not, label %47, label %40

10:                                               ; preds = %.lr.ph, %_ZN6icu_7717double_conversion6Bignum14EnsureCapacityEi.exit
  %indvars.iv = phi i64 [ %8, %.lr.ph ], [ %indvars.iv.next, %_ZN6icu_7717double_conversion6Bignum14EnsureCapacityEi.exit ]
  %.017 = phi i32 [ 0, %.lr.ph ], [ %.1, %_ZN6icu_7717double_conversion6Bignum14EnsureCapacityEi.exit ]
  %.0816 = phi i64 [ 0, %.lr.ph ], [ %.19, %_ZN6icu_7717double_conversion6Bignum14EnsureCapacityEi.exit ]
  %11 = phi i16 [ 0, %.lr.ph ], [ %38, %_ZN6icu_7717double_conversion6Bignum14EnsureCapacityEi.exit ]
  %gep = getelementptr i8, ptr %invariant.gep, i64 %indvars.iv
  %12 = load i8, ptr %gep, align 1, !tbaa !14
  %13 = sext i8 %12 to i32
  %14 = add nsw i32 %13, -48
  %or.cond.i = icmp ult i32 %14, 10
  br i1 %or.cond.i, label %15, label %17

15:                                               ; preds = %10
  %16 = zext nneg i32 %14 to i64
  br label %_ZN6icu_7717double_conversionL12HexCharValueEi.exit

17:                                               ; preds = %10
  %18 = add nsw i32 %13, -97
  %or.cond3.i = icmp ult i32 %18, 6
  br i1 %or.cond3.i, label %19, label %22

19:                                               ; preds = %17
  %20 = add nsw i32 %13, -87
  %21 = zext nneg i32 %20 to i64
  br label %_ZN6icu_7717double_conversionL12HexCharValueEi.exit

22:                                               ; preds = %17
  %23 = add nsw i32 %13, -55
  %24 = sext i32 %23 to i64
  br label %_ZN6icu_7717double_conversionL12HexCharValueEi.exit

_ZN6icu_7717double_conversionL12HexCharValueEi.exit: ; preds = %15, %19, %22
  %.0.i = phi i64 [ %16, %15 ], [ %21, %19 ], [ %24, %22 ]
  %25 = zext nneg i32 %.017 to i64
  %26 = shl i64 %.0.i, %25
  %27 = or i64 %26, %.0816
  %28 = add nsw i32 %.017, 4
  %29 = icmp sgt i32 %.017, 23
  br i1 %29, label %30, label %_ZN6icu_7717double_conversion6Bignum14EnsureCapacityEi.exit

30:                                               ; preds = %_ZN6icu_7717double_conversionL12HexCharValueEi.exit
  %31 = trunc i64 %27 to i32
  %32 = and i32 %31, 268435455
  %33 = add i16 %11, 1
  store i16 %33, ptr %0, align 4, !tbaa !3
  %34 = sext i16 %11 to i64
  %35 = getelementptr inbounds [128 x i32], ptr %7, i64 0, i64 %34
  store i32 %32, ptr %35, align 4, !tbaa !9
  %36 = add nsw i32 %.017, -24
  %37 = lshr i64 %27, 28
  br label %_ZN6icu_7717double_conversion6Bignum14EnsureCapacityEi.exit

_ZN6icu_7717double_conversion6Bignum14EnsureCapacityEi.exit: ; preds = %_ZN6icu_7717double_conversionL12HexCharValueEi.exit, %30
  %38 = phi i16 [ %33, %30 ], [ %11, %_ZN6icu_7717double_conversionL12HexCharValueEi.exit ]
  %.19 = phi i64 [ %37, %30 ], [ %27, %_ZN6icu_7717double_conversionL12HexCharValueEi.exit ]
  %.1 = phi i32 [ %36, %30 ], [ %28, %_ZN6icu_7717double_conversionL12HexCharValueEi.exit ]
  %indvars.iv.next = add nsw i64 %indvars.iv, -1
  %39 = icmp eq i64 %indvars.iv.next, 0
  br i1 %39, label %_ZN6icu_7717double_conversion6Bignum14EnsureCapacityEi.exit._crit_edge, label %10, !llvm.loop !25

40:                                               ; preds = %_ZN6icu_7717double_conversion6Bignum14EnsureCapacityEi.exit._crit_edge
  %41 = trunc i64 %.19 to i32
  %42 = and i32 %41, 268435455
  %43 = add i16 %38, 1
  store i16 %43, ptr %0, align 4, !tbaa !3
  %44 = getelementptr inbounds nuw i8, ptr %0, i64 4
  %45 = sext i16 %38 to i64
  %46 = getelementptr inbounds [128 x i32], ptr %44, i64 0, i64 %45
  store i32 %42, ptr %46, align 4, !tbaa !9
  br label %47

47:                                               ; preds = %40, %_ZN6icu_7717double_conversion6Bignum14EnsureCapacityEi.exit._crit_edge
  %.pr.i = phi i16 [ %43, %40 ], [ %38, %_ZN6icu_7717double_conversion6Bignum14EnsureCapacityEi.exit._crit_edge ]
  %48 = icmp sgt i16 %.pr.i, 0
  br i1 %48, label %.lr.ph.i, label %.critedge.i

.lr.ph.i:                                         ; preds = %47
  %49 = getelementptr inbounds nuw i8, ptr %0, i64 4
  br label %50

50:                                               ; preds = %58, %.lr.ph.i
  %51 = phi i16 [ %.pr.i, %.lr.ph.i ], [ %59, %58 ]
  %52 = zext nneg i16 %51 to i64
  %53 = add nuw nsw i64 %52, 4294967295
  %54 = and i64 %53, 4294967295
  %55 = getelementptr inbounds nuw [128 x i32], ptr %49, i64 0, i64 %54
  %56 = load i32, ptr %55, align 4, !tbaa !9
  %57 = icmp eq i32 %56, 0
  br i1 %57, label %58, label %_ZN6icu_7717double_conversion6Bignum5ClampEv.exit

58:                                               ; preds = %50
  %59 = add nsw i16 %51, -1
  store i16 %59, ptr %0, align 4, !tbaa !3
  %60 = icmp sgt i16 %51, 1
  br i1 %60, label %50, label %.critedge.thread3.i, !llvm.loop !17

.critedge.i:                                      ; preds = %47
  %61 = icmp eq i16 %.pr.i, 0
  br i1 %61, label %.critedge.thread3.i, label %_ZN6icu_7717double_conversion6Bignum5ClampEv.exit

.critedge.thread3.i:                              ; preds = %58, %_ZN6icu_7717double_conversion6Bignum14EnsureCapacityEi.exit.preheader, %.critedge.i
  store i16 0, ptr %4, align 2, !tbaa !8
  br label %_ZN6icu_7717double_conversion6Bignum5ClampEv.exit

_ZN6icu_7717double_conversion6Bignum5ClampEv.exit: ; preds = %50, %.critedge.i, %.critedge.thread3.i
  ret void
}